target datalayout = "e-m:e-p270:32:32-p271:32:32-p272:64:64-i64:64-i128:128-f80:128-n8:16:32:64-S128"
target triple = "x86_64-pc-linux-gnu"

%struct._asn1_ctx_t = type { i32, i32, i8, ptr, ptr, ptr, ptr, ptr, %struct.anon, %struct.anon.3, %struct.anon.4, ptr }
%struct.anon = type { i32, i8, i8, i8, ptr, ptr, i32, i32, ptr, ptr, ptr, %union.anon.0 }
%union.anon.0 = type { %struct.anon.1 }
%struct.anon.1 = type { ptr }
%struct.anon.3 = type { ptr, ptr, ptr }
%struct.anon.4 = type { i32, i8, ptr, i32, i32, ptr, ptr, ptr, %union.anon.5 }
%union.anon.5 = type { %struct.anon.6 }
%struct.anon.6 = type { ptr }
%struct._packet_info = type { ptr, ptr, i32, i32, %struct.nstime_t, %struct.nstime_t, %struct.nstime_t, i8, ptr, ptr, ptr, ptr, %struct._address, %struct._address, %struct._address, %struct._address, %struct._address, %struct._address, i32, ptr, i8, [3 x i8], %struct.anon.8, i32, i32, i32, i32, ptr, i8, ptr, ptr, i16, i16, i32, i32, i16, i32, i32, ptr, ptr, ptr, i8, i8, i16, i16, i16, i32, i16, i16, ptr, ptr, ptr, ptr, ptr, i32, i32 }
%struct.nstime_t = type { i64, i32 }
%struct._address = type { i32, i32, ptr, ptr }
%struct.anon.8 = type { i8, [3 x i8] }
%struct.z3950_atinfo_t = type { i32, i32 }

@proto_z3950 = internal global i32 0, align 4
@.str.2175 = private unnamed_addr constant [6 x i8] c" (%s)\00", align 1
@.str.2185 = private unnamed_addr constant [32 x i8] c"Unknown bib-1 attributeValue %d\00", align 1

; Function Attrs: null_pointer_is_valid sspstrong uwtable
define internal i32 @dissect_z3950_T_attributeValue_numeric(i1 noundef zeroext %0, ptr noundef %1, i32 noundef %2, ptr noundef %3, ptr noundef %4, i32 noundef %5) #0 {
  %7 = alloca i8, align 1
  %8 = alloca ptr, align 8
  %9 = alloca i32, align 4
  %10 = alloca ptr, align 8
  %11 = alloca ptr, align 8
  %12 = alloca i32, align 4
  %13 = alloca i32, align 4
  %14 = alloca ptr, align 8
  %15 = alloca ptr, align 8
  %16 = alloca ptr, align 8
  %17 = zext i1 %0 to i8
  store i8 %17, ptr %7, align 1
  store ptr %1, ptr %8, align 8
  store i32 %2, ptr %9, align 4
  store ptr %3, ptr %10, align 8
  store ptr %4, ptr %11, align 8
  store i32 %5, ptr %12, align 4
  call void @llvm.lifetime.start.p0(i64 4, ptr %13) #8
  store i32 0, ptr %13, align 4
  call void @llvm.lifetime.start.p0(i64 8, ptr %14) #8
  %18 = load ptr, ptr %10, align 8
  %19 = getelementptr inbounds nuw %struct._asn1_ctx_t, ptr %18, i32 0, i32 3
  %20 = load ptr, ptr %19, align 8
  store ptr %20, ptr %14, align 8
  call void @llvm.lifetime.start.p0(i64 8, ptr %15) #8
  call void @llvm.lifetime.start.p0(i64 8, ptr %16) #8
  store ptr null, ptr %16, align 8
  %21 = load i8, ptr %7, align 1, !range !6, !noundef !7
  %22 = trunc i8 %21 to i1
  %23 = load ptr, ptr %10, align 8
  %24 = load ptr, ptr %11, align 8
  %25 = load ptr, ptr %8, align 8
  %26 = load i32, ptr %9, align 4
  %27 = load i32, ptr %12, align 4
  %28 = call i32 @dissect_ber_integer(i1 noundef zeroext %22, ptr noundef %23, ptr noundef %24, ptr noundef %25, i32 noundef %26, i32 noundef %27, ptr noundef %13)
  store i32 %28, ptr %9, align 4
  %29 = load ptr, ptr %14, align 8
  %30 = getelementptr inbounds nuw %struct._packet_info, ptr %29, i32 0, i32 51
  %31 = load ptr, ptr %30, align 8
  %32 = load ptr, ptr %14, align 8
  %33 = load i32, ptr @proto_z3950, align 4
  %34 = call ptr @p_get_proto_data(ptr noundef %31, ptr noundef %32, i32 noundef %33, i32 noundef 1)
  store ptr %34, ptr %15, align 8
  %35 = load ptr, ptr %15, align 8
  %36 = icmp ne ptr %35, null
  br i1 %36, label %37, label %64

37:                                               ; preds = %6
  %38 = load ptr, ptr %15, align 8
  %39 = getelementptr inbounds nuw %struct.z3950_atinfo_t, ptr %38, i32 0, i32 0
  %40 = load i32, ptr %39, align 4
  %41 = icmp eq i32 %40, 1
  br i1 %41, label %42, label %64

42:                                               ; preds = %37
  %43 = load ptr, ptr %15, align 8
  %44 = getelementptr inbounds nuw %struct.z3950_atinfo_t, ptr %43, i32 0, i32 1
  %45 = load i32, ptr %44, align 4
  switch i32 %45, label %52 [
    i32 1, label %46
    i32 2, label %47
    i32 3, label %48
    i32 4, label %49
    i32 5, label %50
    i32 6, label %51
  ]

46:                                               ; preds = %42
  store ptr @z3950_bib1_at_use, ptr %16, align 8
  br label %53

47:                                               ; preds = %42
  store ptr @z3950_bib1_at_relation, ptr %16, align 8
  br label %53

48:                                               ; preds = %42
  store ptr @z3950_bib1_at_position, ptr %16, align 8
  br label %53

49:                                               ; preds = %42
  store ptr @z3950_bib1_at_structure, ptr %16, align 8
  br label %53

50:                                               ; preds = %42
  store ptr @z3950_bib1_at_truncation, ptr %16, align 8
  br label %53

51:                                               ; preds = %42
  store ptr @z3950_bib1_at_completeness, ptr %16, align 8
  br label %53

52:                                               ; preds = %42
  store ptr null, ptr %16, align 8
  br label %53

53:                                               ; preds = %52, %51, %50, %49, %48, %47, %46
  %54 = load ptr, ptr %16, align 8
  %55 = icmp ne ptr %54, null
  br i1 %55, label %56, label %63

56:                                               ; preds = %53
  %57 = load ptr, ptr %10, align 8
  %58 = getelementptr inbounds nuw %struct._asn1_ctx_t, ptr %57, i32 0, i32 4
  %59 = load ptr, ptr %58, align 8
  %60 = load i32, ptr %13, align 4
  %61 = load ptr, ptr %16, align 8
  %62 = call ptr @val_to_str(i32 noundef %60, ptr noundef %61, ptr noundef @.str.2185)
  call void (ptr, ptr, ...) @proto_item_append_text(ptr noundef %59, ptr noundef @.str.2175, ptr noundef %62)
  br label %63

63:                                               ; preds = %56, %53
  br label %64

64:                                               ; preds = %63, %37, %6
  %65 = load i32, ptr %9, align 4
  call void @llvm.lifetime.end.p0(i64 8, ptr %16) #8
  call void @llvm.lifetime.end.p0(i64 8, ptr %15) #8
  call void @llvm.lifetime.end.p0(i64 8, ptr %14) #8
  call void @llvm.lifetime.end.p0(i64 4, ptr %13) #8
  ret i32 %65
}