; Function Attrs: null_pointer_is_valid sspstrong uwtable
define internal i32 @dissect_z3950_T_attributeValue_numeric(i1 noundef zeroext %0, ptr noundef %1, i32 noundef %2, ptr noundef %3, ptr noundef %4, i32 noundef %5) #0 {
  %7 = alloca i32, align 4
  call void @llvm.lifetime.start.p0(i64 4, ptr nonnull %7) #9
  store i32 0, ptr %7, align 4
  %8 = getelementptr inbounds nuw i8, ptr %3, i64 16
  %9 = load ptr, ptr %8, align 8
  %10 = call i32 @dissect_ber_integer(i1 noundef zeroext %0, ptr noundef %3, ptr noundef %4, ptr noundef %1, i32 noundef %2, i32 noundef %5, ptr noundef nonnull %7)
  %11 = getelementptr inbounds nuw i8, ptr %9, i64 408
  %12 = load ptr, ptr %11, align 8
  %13 = load i32, ptr @proto_z3950, align 4
  %14 = call ptr @p_get_proto_data(ptr noundef %12, ptr noundef %9, i32 noundef %13, i32 noundef 1)
  %.not = icmp eq ptr %14, null
  br i1 %.not, label %27, label %15

15:                                               ; preds = %6
  %16 = load i32, ptr %14, align 4
  %17 = icmp eq i32 %16, 1
  br i1 %17, label %18, label %27

18:                                               ; preds = %15
  %19 = getelementptr inbounds nuw i8, ptr %14, i64 4
  %20 = load i32, ptr %19, align 4
  %switch.tableidx = add i32 %20, -1
  %21 = icmp ult i32 %switch.tableidx, 6
  br i1 %21, label %switch.lookup, label %27

switch.lookup:                                    ; preds = %18
  %22 = zext nneg i32 %switch.tableidx to i64
  %switch.gep = getelementptr inbounds nuw [6 x ptr], ptr @switch.table.dissect_z3950_T_attributeValue_numeric, i64 0, i64 %22
  %switch.load = load ptr, ptr %switch.gep, align 8
  %23 = getelementptr inbounds nuw i8, ptr %3, i64 24
  %24 = load ptr, ptr %23, align 8
  %25 = load i32, ptr %7, align 4
  %26 = call ptr @val_to_str(i32 noundef %25, ptr noundef nonnull %switch.load, ptr noundef nonnull @.str.2185)
  call void (ptr, ptr, ...) @proto_item_append_text(ptr noundef %24, ptr noundef nonnull @.str.2175, ptr noundef %26)
  br label %27

27:                                               ; preds = %18, %switch.lookup, %15, %6
  call void @llvm.lifetime.end.p0(i64 4, ptr nonnull %7) #9
  ret i32 %10
}